target datalayout = "e-m:e-p270:32:32-p271:32:32-p272:64:64-i64:64-i128:128-f80:128-n8:16:32:64-S128"
target triple = "x86_64-pc-linux-gnu"

@lo_heap_r = internal global ptr null, align 8
@lo_index_r = internal global ptr null, align 8
@CurrentResourceOwner = external global ptr, align 8
@TopTransactionResourceOwner = external global ptr, align 8

; Function Attrs: nounwind uwtable
define dso_local void @close_lo_relation(i1 noundef zeroext %0) #0 {
  %2 = alloca i8, align 1
  %3 = alloca ptr, align 8
  %4 = zext i1 %0 to i8
  store i8 %4, ptr %2, align 1
  %5 = load ptr, ptr @lo_heap_r, align 8
  %6 = icmp ne ptr %5, null
  br i1 %6, label %10, label %7

7:                                                ; preds = %1
  %8 = load ptr, ptr @lo_index_r, align 8
  %9 = icmp ne ptr %8, null
  br i1 %9, label %10, label %28

10:                                               ; preds = %7, %1
  %11 = load i8, ptr %2, align 1, !range !4, !noundef !5
  %12 = trunc i8 %11 to i1
  br i1 %12, label %13, label %27

13:                                               ; preds = %10
  call void @llvm.lifetime.start.p0(i64 8, ptr %3) #7
  %14 = load ptr, ptr @CurrentResourceOwner, align 8
  store ptr %14, ptr %3, align 8
  %15 = load ptr, ptr @TopTransactionResourceOwner, align 8
  store ptr %15, ptr @CurrentResourceOwner, align 8
  %16 = load ptr, ptr @lo_index_r, align 8
  %17 = icmp ne ptr %16, null
  br i1 %17, label %18, label %20

18:                                               ; preds = %13
  %19 = load ptr, ptr @lo_index_r, align 8
  call void @index_close(ptr noundef %19, i32 noundef 0)
  br label %20

20:                                               ; preds = %18, %13
  %21 = load ptr, ptr @lo_heap_r, align 8
  %22 = icmp ne ptr %21, null
  br i1 %22, label %23, label %25

23:                                               ; preds = %20
  %24 = load ptr, ptr @lo_heap_r, align 8
  call void @table_close(ptr noundef %24, i32 noundef 0)
  br label %25

25:                                               ; preds = %23, %20
  %26 = load ptr, ptr %3, align 8
  store ptr %26, ptr @CurrentResourceOwner, align 8
  call void @llvm.lifetime.end.p0(i64 8, ptr %3) #7
  br label %27

27:                                               ; preds = %25, %10
  store ptr null, ptr @lo_heap_r, align 8
  store ptr null, ptr @lo_index_r, align 8
  br label %28

28:                                               ; preds = %27, %7
  ret void
}