; Function Attrs: nounwind uwtable
define dso_local void @close_lo_relation(i1 noundef zeroext %0) local_unnamed_addr #0 {
  %2 = load ptr, ptr @lo_heap_r, align 8
  %3 = icmp ne ptr %2, null
  %4 = load ptr, ptr @lo_index_r, align 8
  %5 = icmp ne ptr %4, null
  %or.cond = select i1 %3, i1 true, i1 %5
  br i1 %or.cond, label %6, label %16

6:                                                ; preds = %1
  br i1 %0, label %7, label %15

7:                                                ; preds = %6
  %8 = load ptr, ptr @CurrentResourceOwner, align 8
  %9 = load ptr, ptr @TopTransactionResourceOwner, align 8
  store ptr %9, ptr @CurrentResourceOwner, align 8
  %.not = icmp eq ptr %4, null
  br i1 %.not, label %11, label %10

10:                                               ; preds = %7
  tail call void @index_close(ptr noundef nonnull %4, i32 noundef 0) #9
  %.pre = load ptr, ptr @lo_heap_r, align 8
  br label %11

11:                                               ; preds = %10, %7
  %12 = phi ptr [ %.pre, %10 ], [ %2, %7 ]
  %.not3 = icmp eq ptr %12, null
  br i1 %.not3, label %14, label %13

13:                                               ; preds = %11
  tail call void @table_close(ptr noundef nonnull %12, i32 noundef 0) #9
  br label %14

14:                                               ; preds = %13, %11
  store ptr %8, ptr @CurrentResourceOwner, align 8
  br label %15

15:                                               ; preds = %14, %6
  store ptr null, ptr @lo_heap_r, align 8
  store ptr null, ptr @lo_index_r, align 8
  br label %16

16:                                               ; preds = %1, %15
  ret void
}